target datalayout = "e-m:e-p270:32:32-p271:32:32-p272:64:64-i64:64-i128:128-f80:128-n8:16:32:64-S128"
target triple = "x86_64-pc-linux-gnu"

%struct.OSSL_TIME = type { i64 }
%struct.crypto_ex_data_st = type { ptr, ptr }
%struct.CRYPTO_REF_COUNT = type { i32 }
%struct.ssl_st = type { i32, ptr, ptr, ptr, %struct.CRYPTO_REF_COUNT, ptr, %struct.crypto_ex_data_st }
%struct.ssl_connection_st = type { %struct.ssl_st, ptr, i32, ptr, ptr, ptr, i32, ptr, i32, i32, i32, i32, %struct.OSSL_TIME, %struct.OSSL_TIME, %struct.ossl_statem_st, i32, ptr, ptr, i64, i64, i64, %struct.ossl_quic_tls_callbacks_st, ptr, ptr, %struct.anon.0, ptr, ptr, ptr, i32, ptr, %struct.ssl_dane_st, ptr, ptr, ptr, ptr, i32, [64 x i8], [64 x i8], [64 x i8], [64 x i8], [64 x i8], [64 x i8], [64 x i8], [64 x i8], [64 x i8], [64 x i8], [64 x i8], [64 x i8], ptr, [64 x i8], i64, i32, i64, [32 x i8], ptr, ptr, ptr, i64, ptr, [32 x i8], i64, i32, ptr, ptr, i32, i32, ptr, ptr, ptr, ptr, ptr, i64, ptr, ptr, i64, i32, i32, i32, i64, i32, i32, i64, i64, i64, %struct.anon.2, ptr, i32, ptr, ptr, ptr, i32, ptr, ptr, ptr, i32, i32, i32, i32, ptr, i64, i32, ptr, %struct.srp_ctx_st, ptr, %struct.record_layer_st, ptr, ptr, ptr, ptr, i64, i32, i32, i32, i64, i64, i64, ptr, ptr, ptr, ptr, ptr, i64, ptr, i64, ptr, i64 }
%struct.ossl_statem_st = type { i32, i32, i32, i32, i32, i32, i32, i32, i32, i32, i32, i32, i32, ptr, ptr, ptr, i8 }
%struct.ossl_quic_tls_callbacks_st = type { ptr, ptr, ptr, ptr, ptr, ptr }
%struct.anon.0 = type { i64, [32 x i8], [32 x i8], ptr, ptr, i32, i32, i32, i32, [2 x i8], i32, i32, i32, i32, %struct.anon.1, [64 x i8], i64, [64 x i8], i64, i32, i32, ptr, i64, ptr, i64, i32, i8, i8, i16, ptr, i16 }
%struct.anon.1 = type { [128 x i8], i64, [128 x i8], i64, i64, i32, ptr, ptr, [4 x ptr], [4 x i16], i64, i32, ptr, i64, ptr, i64, ptr, ptr, ptr, i32, i64, ptr, i32, ptr, i64, ptr, i64, ptr, i64, ptr, ptr, ptr, ptr, i64, i64, ptr, ptr, i32, i32, i32, i32 }
%struct.ssl_dane_st = type { ptr, ptr, ptr, ptr, ptr, i32, i32, i32, i64 }
%struct.anon.2 = type { [29 x i8], ptr, ptr, ptr, i32, ptr, i16, i32, %struct.anon.3, i32, i32, i64, ptr, i64, ptr, i64, ptr, i64, ptr, i64, ptr, i64, ptr, ptr, ptr, ptr, ptr, ptr, ptr, i64, ptr, i64, i32, i32, i32, i32, ptr, i64, i32, i8, i32, [4 x i32], i32, i8, i8, i8, i8 }
%struct.anon.3 = type { ptr, ptr, ptr, i64 }
%struct.srp_ctx_st = type { ptr, ptr, ptr, ptr, ptr, ptr, ptr, ptr, ptr, ptr, ptr, ptr, ptr, ptr, i32, i64 }
%struct.record_layer_st = type { ptr, ptr, ptr, ptr, ptr, ptr, ptr, ptr, i64, i32, i64, [4 x i8], i64, i64, i8, ptr, i32, ptr, ptr, ptr, i64, i64, i64, i64, [32 x %struct.tls_record_st] }
%struct.tls_record_st = type { ptr, i32, i8, ptr, ptr, i64, i64, i16, [8 x i8] }

; Function Attrs: nounwind uwtable
define i32 @SSL_set_session_ticket_ext_cb(ptr noundef %0, ptr noundef %1, ptr noundef %2) #0 {
  %4 = alloca i32, align 4
  %5 = alloca ptr, align 8
  %6 = alloca ptr, align 8
  %7 = alloca ptr, align 8
  %8 = alloca ptr, align 8
  %9 = alloca i32, align 4
  store ptr %0, ptr %5, align 8, !tbaa !15
  store ptr %1, ptr %6, align 8, !tbaa !78
  store ptr %2, ptr %7, align 8, !tbaa !78
  call void @llvm.lifetime.start.p0(i64 8, ptr %8) #9
  %10 = load ptr, ptr %5, align 8, !tbaa !15
  %11 = icmp eq ptr %10, null
  br i1 %11, label %12, label %13

12:                                               ; preds = %3
  br label %34

13:                                               ; preds = %3
  %14 = load ptr, ptr %5, align 8, !tbaa !15
  %15 = getelementptr inbounds nuw %struct.ssl_st, ptr %14, i32 0, i32 0
  %16 = load i32, ptr %15, align 8, !tbaa !17
  %17 = icmp eq i32 %16, 0
  br i1 %17, label %18, label %20

18:                                               ; preds = %13
  %19 = load ptr, ptr %5, align 8, !tbaa !15
  br label %32

20:                                               ; preds = %13
  %21 = load ptr, ptr %5, align 8, !tbaa !15
  %22 = getelementptr inbounds nuw %struct.ssl_st, ptr %21, i32 0, i32 0
  %23 = load i32, ptr %22, align 8, !tbaa !17
  %24 = and i32 %23, 128
  %25 = icmp ne i32 %24, 0
  br i1 %25, label %26, label %29

26:                                               ; preds = %20
  %27 = load ptr, ptr %5, align 8, !tbaa !15
  %28 = call ptr @ossl_quic_obj_get0_handshake_layer(ptr noundef %27)
  br label %30

29:                                               ; preds = %20
  br label %30

30:                                               ; preds = %29, %26
  %31 = phi ptr [ %28, %26 ], [ null, %29 ]
  br label %32

32:                                               ; preds = %30, %18
  %33 = phi ptr [ %19, %18 ], [ %31, %30 ]
  br label %34

34:                                               ; preds = %32, %12
  %35 = phi ptr [ null, %12 ], [ %33, %32 ]
  store ptr %35, ptr %8, align 8, !tbaa !25
  %36 = load ptr, ptr %8, align 8, !tbaa !25
  %37 = icmp eq ptr %36, null
  br i1 %37, label %38, label %39

38:                                               ; preds = %34
  store i32 0, ptr %4, align 4
  store i32 1, ptr %9, align 4
  br label %48

39:                                               ; preds = %34
  %40 = load ptr, ptr %6, align 8, !tbaa !78
  %41 = load ptr, ptr %8, align 8, !tbaa !25
  %42 = getelementptr inbounds nuw %struct.ssl_connection_st, ptr %41, i32 0, i32 84
  %43 = getelementptr inbounds nuw %struct.anon.2, ptr %42, i32 0, i32 24
  store ptr %40, ptr %43, align 8, !tbaa !173
  %44 = load ptr, ptr %7, align 8, !tbaa !78
  %45 = load ptr, ptr %8, align 8, !tbaa !25
  %46 = getelementptr inbounds nuw %struct.ssl_connection_st, ptr %45, i32 0, i32 84
  %47 = getelementptr inbounds nuw %struct.anon.2, ptr %46, i32 0, i32 25
  store ptr %44, ptr %47, align 8, !tbaa !174
  store i32 1, ptr %4, align 4
  store i32 1, ptr %9, align 4
  br label %48

48:                                               ; preds = %39, %38
  call void @llvm.lifetime.end.p0(i64 8, ptr %8) #9
  %49 = load i32, ptr %4, align 4
  ret i32 %49
}