; Function Attrs: nounwind uwtable
define range(i32 0, 2) i32 @SSL_set_session_ticket_ext_cb(ptr noundef %0, ptr noundef %1, ptr noundef %2) local_unnamed_addr #3 {
  %4 = icmp eq ptr %0, null
  br i1 %4, label %.thread, label %5

5:                                                ; preds = %3
  %6 = load i32, ptr %0, align 8, !tbaa !7
  %7 = icmp eq i32 %6, 0
  br i1 %7, label %.thread13, label %8

8:                                                ; preds = %5
  %9 = and i32 %6, 128
  %.not = icmp eq i32 %9, 0
  br i1 %.not, label %.thread, label %10

10:                                               ; preds = %8
  %11 = tail call ptr @ossl_quic_obj_get0_handshake_layer(ptr noundef nonnull %0) #11
  %12 = icmp eq ptr %11, null
  br i1 %12, label %.thread, label %.thread13

.thread13:                                        ; preds = %5, %10
  %13 = phi ptr [ %11, %10 ], [ %0, %5 ]
  %14 = getelementptr inbounds nuw i8, ptr %13, i64 2768
  store ptr %1, ptr %14, align 8, !tbaa !162
  %15 = getelementptr inbounds nuw i8, ptr %13, i64 2776
  store ptr %2, ptr %15, align 8, !tbaa !163
  br label %.thread

.thread:                                          ; preds = %8, %3, %10, %.thread13
  %.0 = phi i32 [ 1, %.thread13 ], [ 0, %10 ], [ 0, %3 ], [ 0, %8 ]
  ret i32 %.0
}